; Function Attrs: mustprogress uwtable
define void @_ZN9grpc_core8internal49alts_handshaker_client_set_recv_bytes_for_testingEP22alts_handshaker_clientP10grpc_slice(ptr noundef writeonly %c, ptr nocapture noundef readonly %recv_bytes) local_unnamed_addr #3 {
entry:
  %cmp.not = icmp eq ptr %c, null
  br i1 %cmp.not, label %if.then, label %do.end

if.then:                                          ; preds = %entry
  tail call void @gpr_assertion_failed(ptr noundef nonnull @.str, i32 noundef 793, ptr noundef nonnull @.str.1) #17
  unreachable

do.end:                                           ; preds = %entry
  %0 = load ptr, ptr %recv_bytes, align 8
  %cmp.i = icmp ugt ptr %0, inttoptr (i64 1 to ptr)
  br i1 %cmp.i, label %if.then.i, label %_ZN9grpc_core9CSliceRefERK10grpc_sliceNS_13DebugLocationE.exit

if.then.i:                                        ; preds = %do.end
  %1 = atomicrmw add ptr %0, i64 1 monotonic, align 8
  br label %_ZN9grpc_core9CSliceRefERK10grpc_sliceNS_13DebugLocationE.exit

_ZN9grpc_core9CSliceRefERK10grpc_sliceNS_13DebugLocationE.exit: ; preds = %do.end, %if.then.i
  %recv_bytes1 = getelementptr inbounds i8, ptr %c, i64 184
  tail call void @llvm.memcpy.p0.p0.i64(ptr noundef nonnull align 8 dereferenceable(32) %recv_bytes1, ptr noundef nonnull align 8 dereferenceable(32) %recv_bytes, i64 32, i1 false)
  ret void
}